target datalayout = "e-m:e-p270:32:32-p271:32:32-p272:64:64-i64:64-i128:128-f80:128-n8:16:32:64-S128"
target triple = "x86_64-pc-linux-gnu"

%struct.ARKodeMemRec = type { ptr, double, ptr, i32, i32, double, double, ptr, i32, double, ptr, i32, i32, ptr, ptr, i32, ptr, ptr, i32, ptr, ptr, ptr, ptr, ptr, ptr, ptr, ptr, ptr, ptr, ptr, ptr, ptr, ptr, ptr, i32, ptr, ptr, i32, ptr, i32, ptr, ptr, ptr, ptr, ptr, ptr, ptr, ptr, ptr, ptr, ptr, ptr, ptr, ptr, ptr, ptr, ptr, ptr, ptr, ptr, ptr, ptr, ptr, ptr, ptr, ptr, i32, ptr, ptr, ptr, ptr, ptr, ptr, ptr, i32, ptr, ptr, ptr, i32, ptr, ptr, ptr, ptr, ptr, ptr, ptr, i32, i32, i32, i32, double, double, double, double, double, double, double, double, double, double, i32, ptr, i64, i32, i32, i32, i32, i64, i64, i32, i64, i64, i64, i64, i64, i64, i64, double, double, double, double, double, i32, double, double, i32, i32, i32, i32, i32, i32, i32, i32, ptr, i32, ptr, ptr, ptr, ptr, i32, i32, i32 }
%struct._generic_SUNLinearSolver = type { ptr, ptr, ptr }
%struct._generic_SUNLinearSolver_Ops = type { ptr, ptr, ptr, ptr, ptr, ptr, ptr, ptr, ptr, ptr, ptr, ptr, ptr, ptr, ptr }
%struct.ARKLsMassMemRec = type { i32, i32, ptr, ptr, ptr, ptr, double, double, i32, double, i64, i64, i64, i64, i64, i64, i64, i64, i64, ptr, ptr, ptr, ptr, ptr, ptr, ptr, ptr, ptr, ptr, i32 }

@.str = private unnamed_addr constant [118 x i8] c"generated/home/dtcxzyw/WorkSpace/Projects/compilers/llvm-opt-benchmark/bench/sundials/sundials/src/arkode/arkode_ls.c\00", align 1
@.str.1 = private unnamed_addr constant [27 x i8] c"arkode_mem = NULL illegal.\00", align 1
@.str.14 = private unnamed_addr constant [44 x i8] c"Error in calling SUNLinSolSetPreconditioner\00", align 1
@.str.16 = private unnamed_addr constant [65 x i8] c"time-stepping module does not support non-identity mass matrices\00", align 1
@.str.20 = private unnamed_addr constant [70 x i8] c"SUNLinearSolver object does not support user-supplied preconditioning\00", align 1
@__func__.ARKodeSetMassPreconditioner = private unnamed_addr constant [28 x i8] c"ARKodeSetMassPreconditioner\00", align 1
@.str.65 = private unnamed_addr constant [35 x i8] c"Mass matrix solver memory is NULL.\00", align 1

; Function Attrs: nounwind uwtable
define i32 @arkLs_AccessMassMem(ptr noundef %0, ptr noundef %1, ptr noundef %2) #0 {
  %4 = alloca i32, align 4
  %5 = alloca ptr, align 8
  %6 = alloca ptr, align 8
  %7 = alloca ptr, align 8
  %8 = alloca ptr, align 8
  %9 = alloca i32, align 4
  store ptr %0, ptr %5, align 8, !tbaa !11
  store ptr %1, ptr %6, align 8, !tbaa !155
  store ptr %2, ptr %7, align 8, !tbaa !159
  call void @llvm.lifetime.start.p0(i64 8, ptr %8) #7
  %10 = load ptr, ptr %5, align 8, !tbaa !11
  %11 = getelementptr inbounds nuw %struct.ARKodeMemRec, ptr %10, i32 0, i32 69
  %12 = load ptr, ptr %11, align 8, !tbaa !97
  %13 = load ptr, ptr %5, align 8, !tbaa !11
  %14 = call ptr %12(ptr noundef %13)
  store ptr %14, ptr %8, align 8, !tbaa !3
  %15 = load ptr, ptr %8, align 8, !tbaa !3
  %16 = icmp eq ptr %15, null
  br i1 %16, label %17, label %20

17:                                               ; preds = %3
  %18 = load ptr, ptr %5, align 8, !tbaa !11
  %19 = load ptr, ptr %6, align 8, !tbaa !155
  call void (ptr, i32, i32, ptr, ptr, ptr, ...) @arkProcessError(ptr noundef %18, i32 noundef -6, i32 noundef 4109, ptr noundef %19, ptr noundef @.str, ptr noundef @.str.65)
  store i32 -6, ptr %4, align 4
  store i32 1, ptr %9, align 4
  br label %23

20:                                               ; preds = %3
  %21 = load ptr, ptr %8, align 8, !tbaa !3
  %22 = load ptr, ptr %7, align 8, !tbaa !159
  store ptr %21, ptr %22, align 8, !tbaa !101
  store i32 0, ptr %4, align 4
  store i32 1, ptr %9, align 4
  br label %23

23:                                               ; preds = %20, %17
  call void @llvm.lifetime.end.p0(i64 8, ptr %8) #7
  %24 = load i32, ptr %4, align 4
  ret i32 %24
}

; Function Attrs: nounwind uwtable
define i32 @ARKodeSetMassPreconditioner(ptr noundef %0, ptr noundef %1, ptr noundef %2) #0 {
  %4 = alloca i32, align 4
  %5 = alloca ptr, align 8
  %6 = alloca ptr, align 8
  %7 = alloca ptr, align 8
  %8 = alloca ptr, align 8
  %9 = alloca ptr, align 8
  %10 = alloca ptr, align 8
  %11 = alloca ptr, align 8
  %12 = alloca i32, align 4
  %13 = alloca i32, align 4
  store ptr %0, ptr %5, align 8, !tbaa !3
  store ptr %1, ptr %6, align 8, !tbaa !3
  store ptr %2, ptr %7, align 8, !tbaa !3
  call void @llvm.lifetime.start.p0(i64 8, ptr %8) #7
  call void @llvm.lifetime.start.p0(i64 8, ptr %9) #7
  call void @llvm.lifetime.start.p0(i64 8, ptr %10) #7
  call void @llvm.lifetime.start.p0(i64 8, ptr %11) #7
  call void @llvm.lifetime.start.p0(i64 4, ptr %12) #7
  %14 = load ptr, ptr %5, align 8, !tbaa !3
  %15 = icmp eq ptr %14, null
  br i1 %15, label %16, label %17

16:                                               ; preds = %3
  call void (ptr, i32, i32, ptr, ptr, ptr, ...) @arkProcessError(ptr noundef null, i32 noundef -21, i32 noundef 1708, ptr noundef @__func__.ARKodeSetMassPreconditioner, ptr noundef @.str, ptr noundef @.str.1)
  store i32 -21, ptr %4, align 4
  store i32 1, ptr %13, align 4
  br label %68

17:                                               ; preds = %3
  %18 = load ptr, ptr %5, align 8, !tbaa !3
  store ptr %18, ptr %8, align 8, !tbaa !11
  %19 = load ptr, ptr %8, align 8, !tbaa !11
  %20 = getelementptr inbounds nuw %struct.ARKodeMemRec, ptr %19, i32 0, i32 66
  %21 = load i32, ptr %20, align 8, !tbaa !120
  %22 = icmp ne i32 %21, 0
  br i1 %22, label %25, label %23

23:                                               ; preds = %17
  %24 = load ptr, ptr %8, align 8, !tbaa !11
  call void (ptr, i32, i32, ptr, ptr, ptr, ...) @arkProcessError(ptr noundef %24, i32 noundef -48, i32 noundef 1717, ptr noundef @__func__.ARKodeSetMassPreconditioner, ptr noundef @.str, ptr noundef @.str.16)
  store i32 -48, ptr %4, align 4
  store i32 1, ptr %13, align 4
  br label %68

25:                                               ; preds = %17
  %26 = load ptr, ptr %8, align 8, !tbaa !11
  %27 = call i32 @arkLs_AccessMassMem(ptr noundef %26, ptr noundef @__func__.ARKodeSetMassPreconditioner, ptr noundef %9)
  store i32 %27, ptr %12, align 4, !tbaa !30
  %28 = load i32, ptr %12, align 4, !tbaa !30
  %29 = icmp ne i32 %28, 0
  br i1 %29, label %30, label %32

30:                                               ; preds = %25
  %31 = load i32, ptr %12, align 4, !tbaa !30
  store i32 %31, ptr %4, align 4
  store i32 1, ptr %13, align 4
  br label %68

32:                                               ; preds = %25
  %33 = load ptr, ptr %9, align 8, !tbaa !101
  %34 = getelementptr inbounds nuw %struct.ARKLsMassMemRec, ptr %33, i32 0, i32 19
  %35 = load ptr, ptr %34, align 8, !tbaa !110
  %36 = getelementptr inbounds nuw %struct._generic_SUNLinearSolver, ptr %35, i32 0, i32 1
  %37 = load ptr, ptr %36, align 8, !tbaa !24
  %38 = getelementptr inbounds nuw %struct._generic_SUNLinearSolver_Ops, ptr %37, i32 0, i32 3
  %39 = load ptr, ptr %38, align 8, !tbaa !70
  %40 = icmp eq ptr %39, null
  br i1 %40, label %41, label %43

41:                                               ; preds = %32
  %42 = load ptr, ptr %8, align 8, !tbaa !11
  call void (ptr, i32, i32, ptr, ptr, ptr, ...) @arkProcessError(ptr noundef %42, i32 noundef -3, i32 noundef 1729, ptr noundef @__func__.ARKodeSetMassPreconditioner, ptr noundef @.str, ptr noundef @.str.20)
  store i32 -3, ptr %4, align 4
  store i32 1, ptr %13, align 4
  br label %68

43:                                               ; preds = %32
  %44 = load ptr, ptr %6, align 8, !tbaa !3
  %45 = load ptr, ptr %9, align 8, !tbaa !101
  %46 = getelementptr inbounds nuw %struct.ARKLsMassMemRec, ptr %45, i32 0, i32 22
  store ptr %44, ptr %46, align 8, !tbaa !130
  %47 = load ptr, ptr %7, align 8, !tbaa !3
  %48 = load ptr, ptr %9, align 8, !tbaa !101
  %49 = getelementptr inbounds nuw %struct.ARKLsMassMemRec, ptr %48, i32 0, i32 23
  store ptr %47, ptr %49, align 8, !tbaa !131
  %50 = load ptr, ptr %6, align 8, !tbaa !3
  %51 = icmp eq ptr %50, null
  %52 = select i1 %51, ptr null, ptr @arkLsMPSetup
  store ptr %52, ptr %10, align 8, !tbaa !3
  %53 = load ptr, ptr %7, align 8, !tbaa !3
  %54 = icmp eq ptr %53, null
  %55 = select i1 %54, ptr null, ptr @arkLsMPSolve
  store ptr %55, ptr %11, align 8, !tbaa !3
  %56 = load ptr, ptr %9, align 8, !tbaa !101
  %57 = getelementptr inbounds nuw %struct.ARKLsMassMemRec, ptr %56, i32 0, i32 19
  %58 = load ptr, ptr %57, align 8, !tbaa !110
  %59 = load ptr, ptr %8, align 8, !tbaa !11
  %60 = load ptr, ptr %10, align 8, !tbaa !3
  %61 = load ptr, ptr %11, align 8, !tbaa !3
  %62 = call i32 @SUNLinSolSetPreconditioner(ptr noundef %58, ptr noundef %59, ptr noundef %60, ptr noundef %61)
  store i32 %62, ptr %12, align 4, !tbaa !30
  %63 = load i32, ptr %12, align 4, !tbaa !30
  %64 = icmp ne i32 %63, 0
  br i1 %64, label %65, label %67

65:                                               ; preds = %43
  %66 = load ptr, ptr %8, align 8, !tbaa !11
  call void (ptr, i32, i32, ptr, ptr, ptr, ...) @arkProcessError(ptr noundef %66, i32 noundef -12, i32 noundef 1746, ptr noundef @__func__.ARKodeSetMassPreconditioner, ptr noundef @.str, ptr noundef @.str.14)
  store i32 -12, ptr %4, align 4
  store i32 1, ptr %13, align 4
  br label %68

67:                                               ; preds = %43
  store i32 0, ptr %4, align 4
  store i32 1, ptr %13, align 4
  br label %68

68:                                               ; preds = %67, %65, %41, %30, %23, %16
  call void @llvm.lifetime.end.p0(i64 4, ptr %12) #7
  call void @llvm.lifetime.end.p0(i64 8, ptr %11) #7
  call void @llvm.lifetime.end.p0(i64 8, ptr %10) #7
  call void @llvm.lifetime.end.p0(i64 8, ptr %9) #7
  call void @llvm.lifetime.end.p0(i64 8, ptr %8) #7
  %69 = load i32, ptr %4, align 4
  ret i32 %69
}