; Function Attrs: nounwind uwtable
define range(i32 -48, 1) i32 @ARKodeSetMassPreconditioner(ptr noundef %0, ptr noundef %1, ptr noundef %2) local_unnamed_addr #0 {
  %4 = icmp eq ptr %0, null
  br i1 %4, label %5, label %6

5:                                                ; preds = %3
  tail call void (ptr, i32, i32, ptr, ptr, ptr, ...) @arkProcessError(ptr noundef null, i32 noundef -21, i32 noundef 1708, ptr noundef nonnull @__func__.ARKodeSetMassPreconditioner, ptr noundef nonnull @.str, ptr noundef nonnull @.str.1) #13
  br label %33

6:                                                ; preds = %3
  %7 = getelementptr inbounds nuw i8, ptr %0, i64 512
  %8 = load i32, ptr %7, align 8, !tbaa !105
  %.not = icmp eq i32 %8, 0
  br i1 %.not, label %9, label %10

9:                                                ; preds = %6
  tail call void (ptr, i32, i32, ptr, ptr, ptr, ...) @arkProcessError(ptr noundef nonnull %0, i32 noundef -48, i32 noundef 1717, ptr noundef nonnull @__func__.ARKodeSetMassPreconditioner, ptr noundef nonnull @.str, ptr noundef nonnull @.str.16) #13
  br label %33

10:                                               ; preds = %6
  %11 = getelementptr inbounds nuw i8, ptr %0, i64 536
  %12 = load ptr, ptr %11, align 8, !tbaa !75
  %13 = tail call ptr %12(ptr noundef nonnull %0) #13
  %14 = icmp eq ptr %13, null
  br i1 %14, label %arkLs_AccessMassMem.exit, label %15

arkLs_AccessMassMem.exit:                         ; preds = %10
  tail call void (ptr, i32, i32, ptr, ptr, ptr, ...) @arkProcessError(ptr noundef nonnull %0, i32 noundef -6, i32 noundef 4109, ptr noundef nonnull @__func__.ARKodeSetMassPreconditioner, ptr noundef nonnull @.str, ptr noundef nonnull @.str.65) #13
  br label %33

15:                                               ; preds = %10
  %16 = getelementptr inbounds nuw i8, ptr %13, i64 144
  %17 = load ptr, ptr %16, align 8, !tbaa !88
  %18 = getelementptr inbounds nuw i8, ptr %17, i64 8
  %19 = load ptr, ptr %18, align 8, !tbaa !17
  %20 = getelementptr inbounds nuw i8, ptr %19, i64 24
  %21 = load ptr, ptr %20, align 8, !tbaa !59
  %22 = icmp eq ptr %21, null
  br i1 %22, label %23, label %24

23:                                               ; preds = %15
  tail call void (ptr, i32, i32, ptr, ptr, ptr, ...) @arkProcessError(ptr noundef nonnull %0, i32 noundef -3, i32 noundef 1729, ptr noundef nonnull @__func__.ARKodeSetMassPreconditioner, ptr noundef nonnull @.str, ptr noundef nonnull @.str.20) #13
  br label %33

24:                                               ; preds = %15
  %25 = getelementptr inbounds nuw i8, ptr %13, i64 168
  store ptr %1, ptr %25, align 8, !tbaa !120
  %26 = getelementptr inbounds nuw i8, ptr %13, i64 176
  store ptr %2, ptr %26, align 8, !tbaa !150
  %27 = icmp eq ptr %1, null
  %28 = select i1 %27, ptr null, ptr @arkLsMPSetup
  %29 = icmp eq ptr %2, null
  %30 = select i1 %29, ptr null, ptr @arkLsMPSolve
  %31 = tail call i32 @SUNLinSolSetPreconditioner(ptr noundef nonnull %17, ptr noundef nonnull %0, ptr noundef %28, ptr noundef %30) #13
  %.not20 = icmp eq i32 %31, 0
  br i1 %.not20, label %33, label %32

32:                                               ; preds = %24
  tail call void (ptr, i32, i32, ptr, ptr, ptr, ...) @arkProcessError(ptr noundef nonnull %0, i32 noundef -12, i32 noundef 1746, ptr noundef nonnull @__func__.ARKodeSetMassPreconditioner, ptr noundef nonnull @.str, ptr noundef nonnull @.str.14) #13
  br label %33

33:                                               ; preds = %arkLs_AccessMassMem.exit, %24, %32, %23, %9, %5
  %.0 = phi i32 [ -21, %5 ], [ -3, %23 ], [ -12, %32 ], [ -48, %9 ], [ -6, %arkLs_AccessMassMem.exit ], [ 0, %24 ]
  ret i32 %.0
}